     1 00000000                                 ;功能：IPL：启动程序装载器，装载启动程序
     2 00000000                                 ;1.读取512字节之后的内容
     3 00000000                                 ;2.重试5次，如果读取错误或者装载错误，则会重新retry，当计数器大于等于5时，跳转到error
     4 00000000                                 ;3.往后多读几个扇区,一共读取18个扇区
     5 00000000                                 ;4.在C0H0S18之后，就是C0H1S1，在次读入10个柱面，到此处，我们已经将软盘的前10和煮面全部装在进了内存中10*2*18*512=183320Bytes
     6 00000000                                 ; hello-os
     7 00000000                                 ; TAB=4
     8  = 0000000A                              CYLS	EQU	10;		定义CYLS的大小是10
     9 00000000                                 
    10                                          	ORG	0x7c00		; 启动去内容的装载位置0x00007c000-0x00007dff
    11 00007C00                                 
    12 00007C00                                 ; 以下是标准FAT12格式软盘的代码
    13 00007C00                                 
    14 00007C00 EB 4E                           	JMP		entry
    15 00007C02 90                              	DB		0x90
    16 00007C03 48 45 4C 4C 4F 49 50 4C         	DB	"HELLOIPL"	; 启动区的名称可以是任意的字符串（8字节）
    17 00007C0B 0200                            	DW	512		; 每个扇区（sector） 的大小（必须是512字节）
    18 00007C0D 01                              	DB	1		; 簇（cluster）的大小（必须是1个扇区）
    19 00007C0E 0001                            	DW	1		; FAT的起始位置（一般从第一个扇区?始）
    20 00007C10 02                              	DB	2		; FAT的个数（必须是2）
    21 00007C11 00E0                            	DW	224		; 根目录的大小（一般设成224项）
    22 00007C13 0B40                            	DW	2880		; 该磁盘的大小（必须是2280扇区）
    23 00007C15 F0                              	DB	0xf0		; 磁盘的种类（0xf0）
    24 00007C16 0009                            	DW	9		; FAT的长度（必须是9扇区）
    25 00007C18 0012                            	DW	18		; 1个磁道（track）有几个扇区（必须是18）
    26 00007C1A 0002                            	DW	2		; 磁盘数（必须是2）
    27 00007C1C 00000000                        	DD	0		; 不使用分区，必须是0
    28 00007C20 00000B40                        	DD	2880		; 重写一次磁盘大小
    29 00007C24 00 00 29                        	DB	0,0,0x29	; 意义不明，固定
    30 00007C27 FFFFFFFF                        	DD	0xffffffff	; 卷标号码
    31 00007C2B 48 45 4C 4C 4F 2D 4F 53 20 20   	DB	"HELLO-OS   "	; 磁的名称（11字节）
       00007C35 20 
    32 00007C36 46 41 54 31 32 20 20 20         	DB	"FAT12   "	; 磁?格式名称（8字节）
    33 00007C3E 00 00 00 00 00 00 00 00 00 00   	RESB	18		; 先空出18字节
       00007C48 00 00 00 00 00 00 00 00 
    34 00007C50                                 
    35 00007C50                                 ; 程序核心		
    36 00007C50                                 entry:
    37 00007C50 B8 0000                         	MOV AX,0		; 初始化寄存器
    38 00007C53 8E D0                           	MOV SS,AX
    39 00007C55 BC 7C00                         	MOV SP,0x7c00	;栈顶指针指向启动区装载地址
    40 00007C58 8E D8                           	MOV DS,AX
    41 00007C5A 8E C0                           	MOV ES,AX
    42 00007C5C                                 
    43 00007C5C B8 0820                         	MOV		AX,0x0820
    44 00007C5F 8E C0                           	MOV		ES,AX
    45 00007C61 B5 00                           	MOV		CH,0			; 柱面0
    46 00007C63 B6 00                           	MOV		DH,0			; 磁头0
    47 00007C65 B1 02                           	MOV		CL,2			; 扇区2
    48 00007C67                                 
    49 00007C67                                 readloop:
    50 00007C67 BE 0000                         	MOV		SI,0			;记录失败次数的寄存器
    51 00007C6A                                 	
    52 00007C6A                                 retry:
    53 00007C6A B4 02                           	MOV		AH,0x02			; AH=0x02 : 读盘
    54 00007C6C B0 01                           	MOV		AL,1			; 1个扇区
    55 00007C6E BB 0000                         	MOV		BX,0
    56 00007C71 B2 00                           	MOV		DL,0x00			; A驱动器
    57 00007C73 CD 13                           	INT		0x13			; 调用磁盘BIOS
    58 00007C75 73 0E                           	JNC		next				;没出错就跳到fin
    59 00007C77 83 C6 01                        	ADD 	SI,1			;出错读取不到时，SI加一
    60 00007C7A 83 FE 05                        	CMP 	SI,5			;比较SI和5
    61 00007C7D 73 33                           	JAE 	error			;当SI>=5，跳转到error
    62 00007C7F B2 00                           	MOV		DL,0x00			; A驱动器
    63 00007C81 CD 13                           	INT		0x13			; 调用磁盘BIOS
    64 00007C83 EB E5                           	JMP 	retry
    65 00007C85                                 
    66 00007C85                                 next:
    67 00007C85 8C C0                           	MOV 	AX,ES
    68 00007C87 05 0020                         	ADD		AX,0x0020
    69 00007C8A 8E C0                           	MOV		ES,AX			;前面三条语句，就是将内存地址向后移动0x0200(512字节)，0x0020*16(ES*16+BX)
    70 00007C8C 80 C1 01                        	ADD		CL,1			;向CL中加一，CL表示都那个扇区
    71 00007C8F 80 F9 12                        	CMP		CL,18			;比较CL和18
    72 00007C92 76 D3                           	JBE		readloop		;CL小于等于18，则继续跳转到readloop，读取扇区	
    73 00007C94 B1 01                           	MOV		CL,1			; 扇区1
    74 00007C96 80 C6 01                        	ADD		DH,1			; 磁头加1，磁头1
    75 00007C99 80 FE 02                        	CMP 	DH,2			;
    76 00007C9C 72 C9                           	JB		readloop		;DH<2,跳回readloop，到这里一个柱面读完
    77 00007C9E B6 00                           	MOV 	DH,0			;再次换成磁头0
    78 00007CA0 80 C5 01                        	ADD		CH,1			;读取柱面1
    79 00007CA3 80 FD 0A                        	CMP 	CH,CYLS
    80 00007CA6 72 BF                           	JB		readloop		;CH<CYLS(10),继续读取
    81 00007CA8                                 
    82 00007CA8                                 ;跳转到haribote.sys
    83 00007CA8 88 2E 0FF0                      	MOV		[0x0ff0],CH
    84 00007CAC E9 4551                         	JMP		0xc200
    85 00007CAF                                 
    86 00007CAF                                 fin:
    87 00007CAF F4                                  HLT                      ; 让CPU停止；等待指令
    88 00007CB0 EB FD                               JMP fin                  ; 无限循环
    89 00007CB2                                 
    90 00007CB2                                 error:
    91 00007CB2 BE 7CC7                         	MOV SI,msg
    92 00007CB5                                 putloop:
    93 00007CB5 8A 04                           	MOV AL,[SI]
    94 00007CB7 83 C6 01                        	ADD SI,1		; SI加1
    95 00007CBA 3C 00                           	CMP AL,0
    96 00007CBC 74 F1                           	JE fin
    97 00007CBE B4 0E                           	MOV AH,0x0e		; 显示一个文字
    98 00007CC0 BB 000F                         	MOV BX,15		; 指定字符的颜色
    99 00007CC3 CD 10                           	INT 0x10		; 调用显卡BIOS
   100 00007CC5 EB EE                           	JMP putloop
   101 00007CC7                                 
   102 00007CC7                                 msg:
   103 00007CC7 0A 0A                           	DB	0x0a, 0x0a		; 换行2次
   104 00007CC9 57 65 6C 63 6F 6D 65 20 74 6F   	DB	"Welcome to Thanos'OS"
       00007CD3 20 54 68 61 6E 6F 73 27 4F 53 
   105 00007CDD                                 	;DB     "hello world!"
   106 00007CDD 0A                              	DB	0x0a			; 换行
   107 00007CDE 00                              	DB	0
   108 00007CDF                                 
   109 00007CDF 00 00 00 00 00 00 00 00 00 00   	RESB	0x7dfe-$		; 填写0x00，直到0x001fe
       00007CE9 00 00 00 00 00 00 00 00 00 00 
       00007CF3 00 00 00 00 00 00 00 00 00 00 
       00007CFD 00 00 00 00 00 00 00 00 00 00 
       00007D07 00 00 00 00 00 00 00 00 00 00 
       00007D11 00 00 00 00 00 00 00 00 00 00 
       00007D1B 00 00 00 00 00 00 00 00 00 00 
       00007D25 00 00 00 00 00 00 00 00 00 00 
       00007D2F 00 00 00 00 00 00 00 00 00 00 
       00007D39 00 00 00 00 00 00 00 00 00 00 
       00007D43 00 00 00 00 00 00 00 00 00 00 
       00007D4D 00 00 00 00 00 00 00 00 00 00 
       00007D57 00 00 00 00 00 00 00 00 00 00 
       00007D61 00 00 00 00 00 00 00 00 00 00 
       00007D6B 00 00 00 00 00 00 00 00 00 00 
       00007D75 00 00 00 00 00 00 00 00 00 00 
       00007D7F 00 00 00 00 00 00 00 00 00 00 
       00007D89 00 00 00 00 00 00 00 00 00 00 
       00007D93 00 00 00 00 00 00 00 00 00 00 
       00007D9D 00 00 00 00 00 00 00 00 00 00 
       00007DA7 00 00 00 00 00 00 00 00 00 00 
       00007DB1 00 00 00 00 00 00 00 00 00 00 
       00007DBB 00 00 00 00 00 00 00 00 00 00 
       00007DC5 00 00 00 00 00 00 00 00 00 00 
       00007DCF 00 00 00 00 00 00 00 00 00 00 
       00007DD9 00 00 00 00 00 00 00 00 00 00 
       00007DE3 00 00 00 00 00 00 00 00 00 00 
       00007DED 00 00 00 00 00 00 00 00 00 00 
       00007DF7 00 00 00 00 00 00 00 
   110 00007DFE                                 
   111 00007DFE 55 AA                           	DB	0x55, 0xaa
